target datalayout = "e-m:e-p270:32:32-p271:32:32-p272:64:64-i64:64-i128:128-f80:128-n8:16:32:64-S128"
target triple = "x86_64-pc-linux-gnu"

%"class.draco::MeshEncoder" = type { %"class.draco::PointCloudEncoder", ptr, i64 }
%"class.draco::PointCloudEncoder" = type { ptr, ptr, %"class.std::vector", %"class.std::vector.0", %"class.std::vector.0", ptr, ptr, i64 }
%"class.std::vector" = type { %"struct.std::_Vector_base" }
%"struct.std::_Vector_base" = type { %"struct.std::_Vector_base<std::unique_ptr<draco::AttributesEncoder>, std::allocator<std::unique_ptr<draco::AttributesEncoder>>>::_Vector_impl" }
%"struct.std::_Vector_base<std::unique_ptr<draco::AttributesEncoder>, std::allocator<std::unique_ptr<draco::AttributesEncoder>>>::_Vector_impl" = type { %"struct.std::_Vector_base<std::unique_ptr<draco::AttributesEncoder>, std::allocator<std::unique_ptr<draco::AttributesEncoder>>>::_Vector_impl_data" }
%"struct.std::_Vector_base<std::unique_ptr<draco::AttributesEncoder>, std::allocator<std::unique_ptr<draco::AttributesEncoder>>>::_Vector_impl_data" = type { ptr, ptr, ptr }
%"class.std::vector.0" = type { %"struct.std::_Vector_base.1" }
%"struct.std::_Vector_base.1" = type { %"struct.std::_Vector_base<int, std::allocator<int>>::_Vector_impl" }
%"struct.std::_Vector_base<int, std::allocator<int>>::_Vector_impl" = type { %"struct.std::_Vector_base<int, std::allocator<int>>::_Vector_impl_data" }
%"struct.std::_Vector_base<int, std::allocator<int>>::_Vector_impl_data" = type { ptr, ptr, ptr }
%"class.draco::Mesh" = type { %"class.draco::PointCloud.base", %"class.std::vector.15", %"class.draco::IndexTypeVector" }
%"class.draco::PointCloud.base" = type <{ ptr, %"class.std::unique_ptr", %"class.std::vector.10", [5 x %"class.std::vector.0"], i32 }>
%"class.std::unique_ptr" = type { %"struct.std::__uniq_ptr_data" }
%"struct.std::__uniq_ptr_data" = type { %"class.std::__uniq_ptr_impl" }
%"class.std::__uniq_ptr_impl" = type { %"class.std::tuple" }
%"class.std::tuple" = type { %"struct.std::_Tuple_impl" }
%"struct.std::_Tuple_impl" = type { %"struct.std::_Head_base.9" }
%"struct.std::_Head_base.9" = type { ptr }
%"class.std::vector.10" = type { %"struct.std::_Vector_base.11" }
%"struct.std::_Vector_base.11" = type { %"struct.std::_Vector_base<std::unique_ptr<draco::PointAttribute>, std::allocator<std::unique_ptr<draco::PointAttribute>>>::_Vector_impl" }
%"struct.std::_Vector_base<std::unique_ptr<draco::PointAttribute>, std::allocator<std::unique_ptr<draco::PointAttribute>>>::_Vector_impl" = type { %"struct.std::_Vector_base<std::unique_ptr<draco::PointAttribute>, std::allocator<std::unique_ptr<draco::PointAttribute>>>::_Vector_impl_data" }
%"struct.std::_Vector_base<std::unique_ptr<draco::PointAttribute>, std::allocator<std::unique_ptr<draco::PointAttribute>>>::_Vector_impl_data" = type { ptr, ptr, ptr }
%"class.std::vector.15" = type { %"struct.std::_Vector_base.16" }
%"struct.std::_Vector_base.16" = type { %"struct.std::_Vector_base<draco::Mesh::AttributeData, std::allocator<draco::Mesh::AttributeData>>::_Vector_impl" }
%"struct.std::_Vector_base<draco::Mesh::AttributeData, std::allocator<draco::Mesh::AttributeData>>::_Vector_impl" = type { %"struct.std::_Vector_base<draco::Mesh::AttributeData, std::allocator<draco::Mesh::AttributeData>>::_Vector_impl_data" }
%"struct.std::_Vector_base<draco::Mesh::AttributeData, std::allocator<draco::Mesh::AttributeData>>::_Vector_impl_data" = type { ptr, ptr, ptr }
%"class.draco::IndexTypeVector" = type { %"class.std::vector.20" }
%"class.std::vector.20" = type { %"struct.std::_Vector_base.21" }
%"struct.std::_Vector_base.21" = type { %"struct.std::_Vector_base<std::array<draco::IndexType<unsigned int, draco::PointIndex_tag_type_>, 3>, std::allocator<std::array<draco::IndexType<unsigned int, draco::PointIndex_tag_type_>, 3>>>::_Vector_impl" }
%"struct.std::_Vector_base<std::array<draco::IndexType<unsigned int, draco::PointIndex_tag_type_>, 3>, std::allocator<std::array<draco::IndexType<unsigned int, draco::PointIndex_tag_type_>, 3>>>::_Vector_impl" = type { %"struct.std::_Vector_base<std::array<draco::IndexType<unsigned int, draco::PointIndex_tag_type_>, 3>, std::allocator<std::array<draco::IndexType<unsigned int, draco::PointIndex_tag_type_>, 3>>>::_Vector_impl_data" }
%"struct.std::_Vector_base<std::array<draco::IndexType<unsigned int, draco::PointIndex_tag_type_>, 3>, std::allocator<std::array<draco::IndexType<unsigned int, draco::PointIndex_tag_type_>, 3>>>::_Vector_impl_data" = type { ptr, ptr, ptr }

; Function Attrs: mustprogress nounwind uwtable
define linkonce_odr noundef i64 @_ZNKSt6vectorISt5arrayIN5draco9IndexTypeIjNS1_20PointIndex_tag_type_EEELm3EESaIS5_EE4sizeEv(ptr noundef nonnull align 8 dereferenceable(24) %0) #6 comdat align 2 {
  %2 = alloca ptr, align 8
  store ptr %0, ptr %2, align 8, !tbaa !128
  %3 = load ptr, ptr %2, align 8
  %4 = getelementptr inbounds nuw %"struct.std::_Vector_base.21", ptr %3, i32 0, i32 0
  %5 = getelementptr inbounds nuw %"struct.std::_Vector_base<std::array<draco::IndexType<unsigned int, draco::PointIndex_tag_type_>, 3>, std::allocator<std::array<draco::IndexType<unsigned int, draco::PointIndex_tag_type_>, 3>>>::_Vector_impl_data", ptr %4, i32 0, i32 1
  %6 = load ptr, ptr %5, align 8, !tbaa !130
  %7 = getelementptr inbounds nuw %"struct.std::_Vector_base.21", ptr %3, i32 0, i32 0
  %8 = getelementptr inbounds nuw %"struct.std::_Vector_base<std::array<draco::IndexType<unsigned int, draco::PointIndex_tag_type_>, 3>, std::allocator<std::array<draco::IndexType<unsigned int, draco::PointIndex_tag_type_>, 3>>>::_Vector_impl_data", ptr %7, i32 0, i32 0
  %9 = load ptr, ptr %8, align 8, !tbaa !132
  %10 = ptrtoint ptr %6 to i64
  %11 = ptrtoint ptr %9 to i64
  %12 = sub i64 %10, %11
  %13 = sdiv exact i64 %12, 12
  ret i64 %13
}

; Function Attrs: mustprogress nounwind uwtable
define linkonce_odr noundef i64 @_ZNK5draco15IndexTypeVectorINS_9IndexTypeIjNS_19FaceIndex_tag_type_EEESt5arrayINS1_IjNS_20PointIndex_tag_type_EEELm3EEE4sizeEv(ptr noundef nonnull align 8 dereferenceable(24) %0) #6 comdat align 2 {
  %2 = alloca ptr, align 8
  store ptr %0, ptr %2, align 8, !tbaa !126
  %3 = load ptr, ptr %2, align 8
  %4 = getelementptr inbounds nuw %"class.draco::IndexTypeVector", ptr %3, i32 0, i32 0
  %5 = call noundef i64 @_ZNKSt6vectorISt5arrayIN5draco9IndexTypeIjNS1_20PointIndex_tag_type_EEELm3EESaIS5_EE4sizeEv(ptr noundef nonnull align 8 dereferenceable(24) %4) #3
  ret i64 %5
}

; Function Attrs: mustprogress nounwind uwtable
define linkonce_odr void @_ZN5draco11MeshEncoder21set_num_encoded_facesEm(ptr noundef nonnull align 8 dereferenceable(128) %0, i64 noundef %1) #6 comdat align 2 {
  %3 = alloca ptr, align 8
  %4 = alloca i64, align 8
  store ptr %0, ptr %3, align 8, !tbaa !23
  store i64 %1, ptr %4, align 8, !tbaa !93
  %5 = load ptr, ptr %3, align 8
  %6 = load i64, ptr %4, align 8, !tbaa !93
  %7 = getelementptr inbounds nuw %"class.draco::MeshEncoder", ptr %5, i32 0, i32 2
  store i64 %6, ptr %7, align 8, !tbaa !125
  ret void
}

; Function Attrs: mustprogress uwtable
define linkonce_odr noundef i32 @_ZNK5draco4Mesh9num_facesEv(ptr noundef nonnull align 8 dereferenceable(216) %0) #4 comdat align 2 {
  %2 = alloca ptr, align 8
  store ptr %0, ptr %2, align 8, !tbaa !43
  %3 = load ptr, ptr %2, align 8
  %4 = getelementptr inbounds nuw %"class.draco::Mesh", ptr %3, i32 0, i32 2
  %5 = call noundef i64 @_ZNK5draco15IndexTypeVectorINS_9IndexTypeIjNS_19FaceIndex_tag_type_EEESt5arrayINS1_IjNS_20PointIndex_tag_type_EEELm3EEE4sizeEv(ptr noundef nonnull align 8 dereferenceable(24) %4)
  %6 = trunc i64 %5 to i32
  ret i32 %6
}

; Function Attrs: mustprogress nounwind uwtable
define linkonce_odr noundef ptr @_ZNK5draco11MeshEncoder4meshEv(ptr noundef nonnull align 8 dereferenceable(128) %0) #6 comdat align 2 {
  %2 = alloca ptr, align 8
  store ptr %0, ptr %2, align 8, !tbaa !23
  %3 = load ptr, ptr %2, align 8
  %4 = getelementptr inbounds nuw %"class.draco::MeshEncoder", ptr %3, i32 0, i32 1
  %5 = load ptr, ptr %4, align 8, !tbaa !25
  ret ptr %5
}

; Function Attrs: mustprogress uwtable
define void @_ZN5draco21MeshSequentialEncoder27ComputeNumberOfEncodedFacesEv(ptr noundef nonnull align 8 dereferenceable(128) %0) unnamed_addr #4 align 2 {
  %2 = alloca ptr, align 8
  store ptr %0, ptr %2, align 8, !tbaa !3
  %3 = load ptr, ptr %2, align 8
  %4 = call noundef ptr @_ZNK5draco11MeshEncoder4meshEv(ptr noundef nonnull align 8 dereferenceable(128) %3)
  %5 = call noundef i32 @_ZNK5draco4Mesh9num_facesEv(ptr noundef nonnull align 8 dereferenceable(216) %4)
  %6 = zext i32 %5 to i64
  call void @_ZN5draco11MeshEncoder21set_num_encoded_facesEm(ptr noundef nonnull align 8 dereferenceable(128) %3, i64 noundef %6)
  ret void
}