; Function Attrs: mustprogress nofree norecurse nosync nounwind willreturn memory(read, argmem: readwrite, inaccessiblemem: none) uwtable
define void @_ZN5draco21MeshSequentialEncoder27ComputeNumberOfEncodedFacesEv(ptr noundef nonnull align 8 captures(none) dereferenceable(128) initializes((120, 128)) %0) unnamed_addr #9 align 2 {
  %2 = getelementptr inbounds nuw i8, ptr %0, i64 112
  %3 = load ptr, ptr %2, align 8, !tbaa !6
  %4 = getelementptr inbounds nuw i8, ptr %3, i64 192
  %5 = getelementptr inbounds nuw i8, ptr %3, i64 200
  %6 = load ptr, ptr %5, align 8, !tbaa !26
  %7 = load ptr, ptr %4, align 8, !tbaa !29
  %8 = ptrtoint ptr %6 to i64
  %9 = ptrtoint ptr %7 to i64
  %10 = sub i64 %8, %9
  %11 = sdiv exact i64 %10, 12
  %12 = and i64 %11, 4294967295
  %13 = getelementptr inbounds nuw i8, ptr %0, i64 120
  store i64 %12, ptr %13, align 8, !tbaa !112
  ret void
}